Certificate:
    Data:
        Version: 3 (0x2)
        Serial Number:
            e6:fc:17:e5:d2:6f:f2:66:5f:6e:ce:88:62:1d:bc:a9
        Signature Algorithm: sha256WithRSAEncryption
        Issuer: CN=myserver
        Validity
            Not Before: Dec 16 16:12:53 2023 GMT
            Not After : Nov 30 16:12:53 2026 GMT
        Subject: CN=pc2
        Subject Public Key Info:
            Public Key Algorithm: rsaEncryption
                RSA Public-Key: (2048 bit)
                Modulus:
                    00:af:3d:c9:15:94:29:a6:96:04:fd:1e:f6:bc:49:
                    43:05:9c:eb:43:02:5f:fd:35:89:fd:bd:b9:3b:4c:
                    ef:94:04:e2:db:b0:33:4f:d6:3d:2b:fa:4f:d3:75:
                    78:28:be:14:50:ab:85:5f:a3:6e:99:ff:1b:8b:76:
                    92:59:ee:ab:8a:16:b2:16:98:a1:f5:bf:b1:ab:2e:
                    42:61:1c:75:4a:5f:1b:62:8b:b5:ec:f1:bd:d0:b2:
                    a6:e7:de:f3:8e:40:8a:f8:34:4c:1b:a1:49:d5:3b:
                    65:b6:f4:70:f9:09:23:62:26:70:bf:c7:71:6a:72:
                    8d:4a:64:dc:6f:cf:df:3b:7c:1f:11:54:f2:ed:fb:
                    84:c9:87:f1:4e:cb:dc:6d:2b:b5:1f:b0:bd:ef:68:
                    25:56:c3:25:c2:3f:88:82:c6:44:fb:dc:9d:85:74:
                    e7:19:e6:1a:84:a8:38:66:73:92:74:f3:42:ed:60:
                    61:80:13:5d:be:b4:1e:ca:52:7b:33:67:20:d4:38:
                    31:77:5c:46:db:73:9a:56:76:7d:36:12:8a:fd:45:
                    f6:67:d0:ab:17:84:2b:8e:e8:8a:96:b4:87:a5:22:
                    b9:cd:64:01:6d:1e:73:69:65:c9:1c:a6:1c:b7:f1:
                    9d:cb:08:02:6a:ea:6a:af:44:29:57:7f:b7:51:79:
                    90:a5
                Exponent: 65537 (0x10001)
        X509v3 extensions:
            X509v3 Basic Constraints: 
                CA:FALSE
            X509v3 Subject Key Identifier: 
                E6:7C:7E:91:1C:E1:38:1D:18:70:4F:9D:98:EC:74:8A:DA:8D:62:7A
            X509v3 Authority Key Identifier: 
                keyid:33:08:A9:56:05:C0:30:55:5F:45:95:AE:AB:E7:5F:99:D9:BF:10:CC
                DirName:/CN=myserver
                serial:40:8C:53:9E:6A:93:D5:C1:BD:31:9C:D6:E5:9F:23:1F:CB:A5:0C:71

            X509v3 Extended Key Usage: 
                TLS Web Client Authentication
            X509v3 Key Usage: 
                Digital Signature
    Signature Algorithm: sha256WithRSAEncryption
         08:d5:29:5c:ec:5d:a0:c1:7b:b6:f5:49:e0:83:28:2a:b1:2e:
         6c:6d:ad:b0:3b:e2:59:fa:6c:5b:81:91:f9:5d:35:90:a7:ae:
         a1:fd:bd:b1:86:69:9a:b1:df:33:9f:aa:82:94:e4:b1:6e:1a:
         44:02:76:a8:e1:4a:2a:57:c2:28:90:bd:15:91:cf:33:87:82:
         95:c7:7b:3a:ea:5b:a3:5b:f3:cc:bc:d2:13:cf:32:74:ff:54:
         a1:81:05:bd:47:6f:c2:31:ef:79:b8:6c:a5:f8:89:35:49:0d:
         1d:d4:02:d8:b1:6e:44:4e:b8:9e:59:e3:59:c7:47:37:7c:04:
         ec:4d:98:77:09:bb:93:ae:af:4b:67:5e:21:99:2e:95:4b:8c:
         62:c3:4c:bc:6f:f2:90:f2:12:c4:7b:db:ba:ad:2e:53:eb:5d:
         32:5b:42:ef:c6:1f:6a:df:be:50:4c:99:97:90:0f:95:67:74:
         33:41:ed:e5:72:02:61:fc:7f:89:33:1f:93:1f:b7:e4:4c:9e:
         b1:7d:2c:cb:46:b7:43:6b:3b:5f:47:91:e7:40:e1:1a:6e:d5:
         3c:33:6e:40:1a:06:ea:4a:64:00:bb:60:99:92:e2:e7:48:fe:
         b2:47:1a:4f:14:96:9b:2c:1f:1b:92:4c:58:12:82:c5:01:27:
         43:4f:03:ee
-----BEGIN CERTIFICATE-----
MIIDTDCCAjSgAwIBAgIRAOb8F+XSb/JmX27OiGIdvKkwDQYJKoZIhvcNAQELBQAw
EzERMA8GA1UEAwwIbXlzZXJ2ZXIwHhcNMjMxMjE2MTYxMjUzWhcNMjYxMTMwMTYx
MjUzWjAOMQwwCgYDVQQDDANwYzIwggEiMA0GCSqGSIb3DQEBAQUAA4IBDwAwggEK
AoIBAQCvPckVlCmmlgT9Hva8SUMFnOtDAl/9NYn9vbk7TO+UBOLbsDNP1j0r+k/T
dXgovhRQq4Vfo26Z/xuLdpJZ7quKFrIWmKH1v7GrLkJhHHVKXxtii7Xs8b3Qsqbn
3vOOQIr4NEwboUnVO2W29HD5CSNiJnC/x3Fqco1KZNxvz987fB8RVPLt+4TJh/FO
y9xtK7UfsL3vaCVWwyXCP4iCxkT73J2FdOcZ5hqEqDhmc5J080LtYGGAE12+tB7K
UnszZyDUODF3XEbbc5pWdn02Eor9RfZn0KsXhCuO6IqWtIelIrnNZAFtHnNpZckc
phy38Z3LCAJq6mqvRClXf7dReZClAgMBAAGjgZ8wgZwwCQYDVR0TBAIwADAdBgNV
HQ4EFgQU5nx+kRzhOB0YcE+dmOx0itqNYnowTgYDVR0jBEcwRYAUMwipVgXAMFVf
RZWuq+dfmdm/EMyhF6QVMBMxETAPBgNVBAMMCG15c2VydmVyghRAjFOeapPVwb0x
nNblnyMfy6UMcTATBgNVHSUEDDAKBggrBgEFBQcDAjALBgNVHQ8EBAMCB4AwDQYJ
KoZIhvcNAQELBQADggEBAAjVKVzsXaDBe7b1SeCDKCqxLmxtrbA74ln6bFuBkfld
NZCnrqH9vbGGaZqx3zOfqoKU5LFuGkQCdqjhSipXwiiQvRWRzzOHgpXHezrqW6Nb
88y80hPPMnT/VKGBBb1Hb8Ix73m4bKX4iTVJDR3UAtixbkROuJ5Z41nHRzd8BOxN
mHcJu5Our0tnXiGZLpVLjGLDTLxv8pDyEsR727qtLlPrXTJbQu/GH2rfvlBMmZeQ
D5VndDNB7eVyAmH8f4kzH5Mft+RMnrF9LMtGt0NrO19HkedA4Rpu1TwzbkAaBupK
ZAC7YJmS4udI/rJHGk8UlpssHxuSTFgSgsUBJ0NPA+4=
-----END CERTIFICATE-----
